target datalayout = "e-m:e-p270:32:32-p271:32:32-p272:64:64-i64:64-i128:128-f80:128-n8:16:32:64-S128"
target triple = "x86_64-pc-linux-gnu"

@.str.29 = private unnamed_addr constant [29 x i8] c"Negotiated TLS1.3 group: %s\0A\00", align 1
@.str.30 = private unnamed_addr constant [16 x i8] c"Peer Temp Key: \00", align 1
@.str.31 = private unnamed_addr constant [14 x i8] c"RSA, %d bits\0A\00", align 1
@.str.32 = private unnamed_addr constant [2 x i8] c"?\00", align 1
@.str.33 = private unnamed_addr constant [4 x i8] c"%s\0A\00", align 1
@.str.34 = private unnamed_addr constant [13 x i8] c"DH, %d bits\0A\00", align 1
@.str.35 = private unnamed_addr constant [6 x i8] c"group\00", align 1
@.str.36 = private unnamed_addr constant [19 x i8] c"ECDH, %s, %d bits\0A\00", align 1
@.str.37 = private unnamed_addr constant [13 x i8] c"%s, %d bits\0A\00", align 1

; Function Attrs: nounwind uwtable
define i32 @ssl_print_tmp_key(ptr noundef %0, ptr noundef %1) #0 {
  %3 = alloca i32, align 4
  %4 = alloca ptr, align 8
  %5 = alloca ptr, align 8
  %6 = alloca ptr, align 8
  %7 = alloca ptr, align 8
  %8 = alloca i32, align 4
  %9 = alloca [80 x i8], align 16
  %10 = alloca i64, align 8
  store ptr %0, ptr %4, align 8, !tbaa !14
  store ptr %1, ptr %5, align 8, !tbaa !27
  call void @llvm.lifetime.start.p0(i64 8, ptr %6) #10
  call void @llvm.lifetime.start.p0(i64 8, ptr %7) #10
  %11 = load ptr, ptr %5, align 8, !tbaa !27
  %12 = call i64 @SSL_ctrl(ptr noundef %11, i32 noundef 109, i64 noundef 0, ptr noundef %7)
  %13 = icmp ne i64 %12, 0
  br i1 %13, label %27, label %14

14:                                               ; preds = %2
  %15 = load ptr, ptr %5, align 8, !tbaa !27
  %16 = call i32 @SSL_version(ptr noundef %15)
  %17 = icmp eq i32 %16, 772
  br i1 %17, label %18, label %26

18:                                               ; preds = %14
  %19 = load ptr, ptr %4, align 8, !tbaa !14
  %20 = load ptr, ptr %5, align 8, !tbaa !27
  %21 = load ptr, ptr %5, align 8, !tbaa !27
  %22 = call i64 @SSL_ctrl(ptr noundef %21, i32 noundef 134, i64 noundef 0, ptr noundef null)
  %23 = trunc i64 %22 to i32
  %24 = call ptr @SSL_group_to_name(ptr noundef %20, i32 noundef %23)
  %25 = call i32 (ptr, ptr, ...) @BIO_printf(ptr noundef %19, ptr noundef @.str.29, ptr noundef %24)
  br label %26

26:                                               ; preds = %18, %14
  store i32 1, ptr %3, align 4
  store i32 1, ptr %8, align 4
  br label %75

27:                                               ; preds = %2
  %28 = load ptr, ptr %4, align 8, !tbaa !14
  %29 = call i32 @BIO_puts(ptr noundef %28, ptr noundef @.str.30)
  %30 = load ptr, ptr %7, align 8, !tbaa !23
  %31 = call i32 @EVP_PKEY_get_id(ptr noundef %30)
  switch i32 %31, label %65 [
    i32 6, label %32
    i32 -1, label %37
    i32 28, label %46
    i32 408, label %51
  ]

32:                                               ; preds = %27
  %33 = load ptr, ptr %4, align 8, !tbaa !14
  %34 = load ptr, ptr %7, align 8, !tbaa !23
  %35 = call i32 @EVP_PKEY_get_bits(ptr noundef %34)
  %36 = call i32 (ptr, ptr, ...) @BIO_printf(ptr noundef %33, ptr noundef @.str.31, i32 noundef %35)
  br label %73

37:                                               ; preds = %27
  %38 = load ptr, ptr %7, align 8, !tbaa !23
  %39 = call ptr @EVP_PKEY_get0_type_name(ptr noundef %38)
  store ptr %39, ptr %6, align 8, !tbaa !21
  %40 = icmp eq ptr %39, null
  br i1 %40, label %41, label %42

41:                                               ; preds = %37
  store ptr @.str.32, ptr %6, align 8, !tbaa !21
  br label %42

42:                                               ; preds = %41, %37
  %43 = load ptr, ptr %4, align 8, !tbaa !14
  %44 = load ptr, ptr %6, align 8, !tbaa !21
  %45 = call i32 (ptr, ptr, ...) @BIO_printf(ptr noundef %43, ptr noundef @.str.33, ptr noundef %44)
  br label %73

46:                                               ; preds = %27
  %47 = load ptr, ptr %4, align 8, !tbaa !14
  %48 = load ptr, ptr %7, align 8, !tbaa !23
  %49 = call i32 @EVP_PKEY_get_bits(ptr noundef %48)
  %50 = call i32 (ptr, ptr, ...) @BIO_printf(ptr noundef %47, ptr noundef @.str.34, i32 noundef %49)
  br label %73

51:                                               ; preds = %27
  call void @llvm.lifetime.start.p0(i64 80, ptr %9) #10
  call void @llvm.lifetime.start.p0(i64 8, ptr %10) #10
  %52 = load ptr, ptr %7, align 8, !tbaa !23
  %53 = getelementptr inbounds [80 x i8], ptr %9, i64 0, i64 0
  %54 = call i32 @EVP_PKEY_get_utf8_string_param(ptr noundef %52, ptr noundef @.str.35, ptr noundef %53, i64 noundef 80, ptr noundef %10)
  %55 = icmp ne i32 %54, 0
  br i1 %55, label %59, label %56

56:                                               ; preds = %51
  %57 = getelementptr inbounds [80 x i8], ptr %9, i64 0, i64 0
  %58 = call ptr @strcpy(ptr noundef %57, ptr noundef @.str.32) #10
  br label %59

59:                                               ; preds = %56, %51
  %60 = load ptr, ptr %4, align 8, !tbaa !14
  %61 = getelementptr inbounds [80 x i8], ptr %9, i64 0, i64 0
  %62 = load ptr, ptr %7, align 8, !tbaa !23
  %63 = call i32 @EVP_PKEY_get_bits(ptr noundef %62)
  %64 = call i32 (ptr, ptr, ...) @BIO_printf(ptr noundef %60, ptr noundef @.str.36, ptr noundef %61, i32 noundef %63)
  call void @llvm.lifetime.end.p0(i64 8, ptr %10) #10
  call void @llvm.lifetime.end.p0(i64 80, ptr %9) #10
  br label %73

65:                                               ; preds = %27
  %66 = load ptr, ptr %4, align 8, !tbaa !14
  %67 = load ptr, ptr %7, align 8, !tbaa !23
  %68 = call i32 @EVP_PKEY_get_id(ptr noundef %67)
  %69 = call ptr @OBJ_nid2sn(i32 noundef %68)
  %70 = load ptr, ptr %7, align 8, !tbaa !23
  %71 = call i32 @EVP_PKEY_get_bits(ptr noundef %70)
  %72 = call i32 (ptr, ptr, ...) @BIO_printf(ptr noundef %66, ptr noundef @.str.37, ptr noundef %69, i32 noundef %71)
  br label %73

73:                                               ; preds = %65, %59, %46, %42, %32
  %74 = load ptr, ptr %7, align 8, !tbaa !23
  call void @EVP_PKEY_free(ptr noundef %74)
  store i32 1, ptr %3, align 4
  store i32 1, ptr %8, align 4
  br label %75

75:                                               ; preds = %73, %26
  call void @llvm.lifetime.end.p0(i64 8, ptr %7) #10
  call void @llvm.lifetime.end.p0(i64 8, ptr %6) #10
  %76 = load i32, ptr %3, align 4
  ret i32 %76
}