; Function Attrs: nounwind uwtable
define noundef i32 @ssl_print_tmp_key(ptr noundef %0, ptr noundef %1) local_unnamed_addr #0 {
  %3 = alloca ptr, align 8
  %4 = alloca [80 x i8], align 16
  %5 = alloca i64, align 8
  call void @llvm.lifetime.start.p0(i64 8, ptr nonnull %3) #6
  %6 = call i64 @SSL_ctrl(ptr noundef %1, i32 noundef 109, i64 noundef 0, ptr noundef nonnull %3) #6
  %.not = icmp eq i64 %6, 0
  br i1 %.not, label %7, label %15

7:                                                ; preds = %2
  %8 = call i32 @SSL_version(ptr noundef %1) #6
  %9 = icmp eq i32 %8, 772
  br i1 %9, label %10, label %49

10:                                               ; preds = %7
  %11 = call i64 @SSL_ctrl(ptr noundef %1, i32 noundef 134, i64 noundef 0, ptr noundef null) #6
  %12 = trunc i64 %11 to i32
  %13 = call ptr @SSL_group_to_name(ptr noundef %1, i32 noundef %12) #6
  %14 = call i32 (ptr, ptr, ...) @BIO_printf(ptr noundef %0, ptr noundef nonnull @.str.29, ptr noundef %13) #6
  br label %49

15:                                               ; preds = %2
  %16 = call i32 @BIO_puts(ptr noundef %0, ptr noundef nonnull @.str.30) #6
  %17 = load ptr, ptr %3, align 8, !tbaa !27
  %18 = call i32 @EVP_PKEY_get_id(ptr noundef %17) #6
  switch i32 %18, label %40 [
    i32 6, label %19
    i32 -1, label %23
    i32 28, label %28
    i32 408, label %32
  ]

19:                                               ; preds = %15
  %20 = load ptr, ptr %3, align 8, !tbaa !27
  %21 = call i32 @EVP_PKEY_get_bits(ptr noundef %20) #6
  %22 = call i32 (ptr, ptr, ...) @BIO_printf(ptr noundef %0, ptr noundef nonnull @.str.31, i32 noundef %21) #6
  br label %47

23:                                               ; preds = %15
  %24 = load ptr, ptr %3, align 8, !tbaa !27
  %25 = call ptr @EVP_PKEY_get0_type_name(ptr noundef %24) #6
  %26 = icmp eq ptr %25, null
  %spec.store.select = select i1 %26, ptr @.str.32, ptr %25
  %27 = call i32 (ptr, ptr, ...) @BIO_printf(ptr noundef %0, ptr noundef nonnull @.str.33, ptr noundef nonnull %spec.store.select) #6
  br label %47

28:                                               ; preds = %15
  %29 = load ptr, ptr %3, align 8, !tbaa !27
  %30 = call i32 @EVP_PKEY_get_bits(ptr noundef %29) #6
  %31 = call i32 (ptr, ptr, ...) @BIO_printf(ptr noundef %0, ptr noundef nonnull @.str.34, i32 noundef %30) #6
  br label %47

32:                                               ; preds = %15
  call void @llvm.lifetime.start.p0(i64 80, ptr nonnull %4) #6
  call void @llvm.lifetime.start.p0(i64 8, ptr nonnull %5) #6
  %33 = load ptr, ptr %3, align 8, !tbaa !27
  %34 = call i32 @EVP_PKEY_get_utf8_string_param(ptr noundef %33, ptr noundef nonnull @.str.35, ptr noundef nonnull %4, i64 noundef 80, ptr noundef nonnull %5) #6
  %.not12 = icmp eq i32 %34, 0
  br i1 %.not12, label %35, label %36

35:                                               ; preds = %32
  store i16 63, ptr %4, align 16
  br label %36

36:                                               ; preds = %35, %32
  %37 = load ptr, ptr %3, align 8, !tbaa !27
  %38 = call i32 @EVP_PKEY_get_bits(ptr noundef %37) #6
  %39 = call i32 (ptr, ptr, ...) @BIO_printf(ptr noundef %0, ptr noundef nonnull @.str.36, ptr noundef nonnull %4, i32 noundef %38) #6
  call void @llvm.lifetime.end.p0(i64 8, ptr nonnull %5) #6
  call void @llvm.lifetime.end.p0(i64 80, ptr nonnull %4) #6
  br label %47

40:                                               ; preds = %15
  %41 = load ptr, ptr %3, align 8, !tbaa !27
  %42 = call i32 @EVP_PKEY_get_id(ptr noundef %41) #6
  %43 = call ptr @OBJ_nid2sn(i32 noundef %42) #6
  %44 = load ptr, ptr %3, align 8, !tbaa !27
  %45 = call i32 @EVP_PKEY_get_bits(ptr noundef %44) #6
  %46 = call i32 (ptr, ptr, ...) @BIO_printf(ptr noundef %0, ptr noundef nonnull @.str.37, ptr noundef %43, i32 noundef %45) #6
  br label %47

47:                                               ; preds = %40, %36, %28, %23, %19
  %48 = load ptr, ptr %3, align 8, !tbaa !27
  call void @EVP_PKEY_free(ptr noundef %48) #6
  br label %49

49:                                               ; preds = %7, %10, %47
  call void @llvm.lifetime.end.p0(i64 8, ptr nonnull %3) #6
  ret i32 1
}